target datalayout = "e-m:e-p270:32:32-p271:32:32-p272:64:64-i64:64-i128:128-f80:128-n8:16:32:64-S128"
target triple = "x86_64-pc-linux-gnu"

@.str.75 = private unnamed_addr constant [4 x i8] c"buf\00", align 1
@.str.76 = private unnamed_addr constant [4 x i8] c"not\00", align 1
@.str.104 = private unnamed_addr constant [10 x i8] c"endmodule\00", align 1
@.str.143 = private unnamed_addr constant [7 x i8] c"module\00", align 1
@.str.144 = private unnamed_addr constant [6 x i8] c"input\00", align 1
@.str.145 = private unnamed_addr constant [7 x i8] c"output\00", align 1
@.str.146 = private unnamed_addr constant [5 x i8] c"wire\00", align 1
@.str.147 = private unnamed_addr constant [4 x i8] c"and\00", align 1
@.str.148 = private unnamed_addr constant [5 x i8] c"nand\00", align 1
@.str.149 = private unnamed_addr constant [3 x i8] c"or\00", align 1
@.str.150 = private unnamed_addr constant [4 x i8] c"nor\00", align 1
@.str.151 = private unnamed_addr constant [4 x i8] c"xor\00", align 1
@.str.152 = private unnamed_addr constant [5 x i8] c"xnor\00", align 1
@.str.153 = private unnamed_addr constant [6 x i8] c"_HMUX\00", align 1
@.str.154 = private unnamed_addr constant [4 x i8] c"_DC\00", align 1

; Function Attrs: nounwind uwtable
define internal ptr @Acb_Num2Name(i32 noundef %0) #0 {
  %2 = alloca ptr, align 8
  %3 = alloca i32, align 4
  store i32 %0, ptr %3, align 4
  %4 = load i32, ptr %3, align 4
  %5 = icmp eq i32 %4, 1
  br i1 %5, label %6, label %7

6:                                                ; preds = %1
  store ptr @.str.143, ptr %2, align 8
  br label %64

7:                                                ; preds = %1
  %8 = load i32, ptr %3, align 4
  %9 = icmp eq i32 %8, 2
  br i1 %9, label %10, label %11

10:                                               ; preds = %7
  store ptr @.str.104, ptr %2, align 8
  br label %64

11:                                               ; preds = %7
  %12 = load i32, ptr %3, align 4
  %13 = icmp eq i32 %12, 3
  br i1 %13, label %14, label %15

14:                                               ; preds = %11
  store ptr @.str.144, ptr %2, align 8
  br label %64

15:                                               ; preds = %11
  %16 = load i32, ptr %3, align 4
  %17 = icmp eq i32 %16, 4
  br i1 %17, label %18, label %19

18:                                               ; preds = %15
  store ptr @.str.145, ptr %2, align 8
  br label %64

19:                                               ; preds = %15
  %20 = load i32, ptr %3, align 4
  %21 = icmp eq i32 %20, 5
  br i1 %21, label %22, label %23

22:                                               ; preds = %19
  store ptr @.str.146, ptr %2, align 8
  br label %64

23:                                               ; preds = %19
  %24 = load i32, ptr %3, align 4
  %25 = icmp eq i32 %24, 6
  br i1 %25, label %26, label %27

26:                                               ; preds = %23
  store ptr @.str.75, ptr %2, align 8
  br label %64

27:                                               ; preds = %23
  %28 = load i32, ptr %3, align 4
  %29 = icmp eq i32 %28, 7
  br i1 %29, label %30, label %31

30:                                               ; preds = %27
  store ptr @.str.76, ptr %2, align 8
  br label %64

31:                                               ; preds = %27
  %32 = load i32, ptr %3, align 4
  %33 = icmp eq i32 %32, 8
  br i1 %33, label %34, label %35

34:                                               ; preds = %31
  store ptr @.str.147, ptr %2, align 8
  br label %64

35:                                               ; preds = %31
  %36 = load i32, ptr %3, align 4
  %37 = icmp eq i32 %36, 9
  br i1 %37, label %38, label %39

38:                                               ; preds = %35
  store ptr @.str.148, ptr %2, align 8
  br label %64

39:                                               ; preds = %35
  %40 = load i32, ptr %3, align 4
  %41 = icmp eq i32 %40, 10
  br i1 %41, label %42, label %43

42:                                               ; preds = %39
  store ptr @.str.149, ptr %2, align 8
  br label %64

43:                                               ; preds = %39
  %44 = load i32, ptr %3, align 4
  %45 = icmp eq i32 %44, 11
  br i1 %45, label %46, label %47

46:                                               ; preds = %43
  store ptr @.str.150, ptr %2, align 8
  br label %64

47:                                               ; preds = %43
  %48 = load i32, ptr %3, align 4
  %49 = icmp eq i32 %48, 12
  br i1 %49, label %50, label %51

50:                                               ; preds = %47
  store ptr @.str.151, ptr %2, align 8
  br label %64

51:                                               ; preds = %47
  %52 = load i32, ptr %3, align 4
  %53 = icmp eq i32 %52, 13
  br i1 %53, label %54, label %55

54:                                               ; preds = %51
  store ptr @.str.152, ptr %2, align 8
  br label %64

55:                                               ; preds = %51
  %56 = load i32, ptr %3, align 4
  %57 = icmp eq i32 %56, 14
  br i1 %57, label %58, label %59

58:                                               ; preds = %55
  store ptr @.str.153, ptr %2, align 8
  br label %64

59:                                               ; preds = %55
  %60 = load i32, ptr %3, align 4
  %61 = icmp eq i32 %60, 15
  br i1 %61, label %62, label %63

62:                                               ; preds = %59
  store ptr @.str.154, ptr %2, align 8
  br label %64

63:                                               ; preds = %59
  store ptr null, ptr %2, align 8
  br label %64

64:                                               ; preds = %63, %62, %58, %54, %50, %46, %42, %38, %34, %30, %26, %22, %18, %14, %10, %6
  %65 = load ptr, ptr %2, align 8
  ret ptr %65
}

; Function Attrs: nounwind uwtable
define ptr @Acb_VerilogStartNames() #0 {
  %1 = alloca ptr, align 8
  %2 = alloca i32, align 4
  %3 = alloca i32, align 4
  %4 = alloca i32, align 4
  %5 = call ptr @Abc_NamStart(i32 noundef 100, i32 noundef 16)
  store ptr %5, ptr %1, align 8
  store i32 1, ptr %2, align 4
  br label %6

6:                                                ; preds = %14, %0
  %7 = load i32, ptr %2, align 4
  %8 = icmp slt i32 %7, 16
  br i1 %8, label %9, label %17

9:                                                ; preds = %6
  %10 = load ptr, ptr %1, align 8
  %11 = load i32, ptr %2, align 4
  %12 = call ptr @Acb_Num2Name(i32 noundef %11)
  %13 = call i32 @Abc_NamStrFindOrAdd(ptr noundef %10, ptr noundef %12, ptr noundef %4)
  store i32 %13, ptr %3, align 4
  br label %14

14:                                               ; preds = %9
  %15 = load i32, ptr %2, align 4
  %16 = add nsw i32 %15, 1
  store i32 %16, ptr %2, align 4
  br label %6, !llvm.loop !6

17:                                               ; preds = %6
  %18 = load ptr, ptr %1, align 8
  ret ptr %18
}