; Function Attrs: nounwind uwtable
define ptr @Acb_VerilogStartNames() local_unnamed_addr #0 {
  %1 = alloca i32, align 4
  %2 = tail call ptr @Abc_NamStart(i32 noundef 100, i32 noundef 16) #31
  br label %3

3:                                                ; preds = %Acb_Num2Name.exit, %0
  %.04 = phi i32 [ 1, %0 ], [ %19, %Acb_Num2Name.exit ]
  switch i32 %.04, label %17 [
    i32 1, label %Acb_Num2Name.exit
    i32 2, label %4
    i32 3, label %5
    i32 4, label %6
    i32 5, label %7
    i32 6, label %8
    i32 7, label %9
    i32 8, label %10
    i32 9, label %11
    i32 10, label %12
    i32 11, label %13
    i32 12, label %14
    i32 13, label %15
    i32 14, label %16
    i32 15, label %20
  ]

4:                                                ; preds = %3
  br label %Acb_Num2Name.exit

5:                                                ; preds = %3
  br label %Acb_Num2Name.exit

6:                                                ; preds = %3
  br label %Acb_Num2Name.exit

7:                                                ; preds = %3
  br label %Acb_Num2Name.exit

8:                                                ; preds = %3
  br label %Acb_Num2Name.exit

9:                                                ; preds = %3
  br label %Acb_Num2Name.exit

10:                                               ; preds = %3
  br label %Acb_Num2Name.exit

11:                                               ; preds = %3
  br label %Acb_Num2Name.exit

12:                                               ; preds = %3
  br label %Acb_Num2Name.exit

13:                                               ; preds = %3
  br label %Acb_Num2Name.exit

14:                                               ; preds = %3
  br label %Acb_Num2Name.exit

15:                                               ; preds = %3
  br label %Acb_Num2Name.exit

16:                                               ; preds = %3
  br label %Acb_Num2Name.exit

17:                                               ; preds = %3
  br label %Acb_Num2Name.exit

Acb_Num2Name.exit:                                ; preds = %3, %4, %5, %6, %7, %8, %9, %10, %11, %12, %13, %14, %15, %16, %17
  %.0.i = phi ptr [ @.str.104, %4 ], [ @.str.144, %5 ], [ @.str.145, %6 ], [ @.str.146, %7 ], [ @.str.75, %8 ], [ @.str.76, %9 ], [ @.str.147, %10 ], [ @.str.148, %11 ], [ @.str.149, %12 ], [ @.str.150, %13 ], [ @.str.151, %14 ], [ @.str.152, %15 ], [ @.str.153, %16 ], [ null, %17 ], [ @.str.143, %3 ]
  %18 = call i32 @Abc_NamStrFindOrAdd(ptr noundef %2, ptr noundef %.0.i, ptr noundef nonnull %1) #31
  %19 = add nuw nsw i32 %.04, 1
  br label %3

20:                                               ; preds = %3
  %21 = call i32 @Abc_NamStrFindOrAdd(ptr noundef %2, ptr noundef nonnull @.str.154, ptr noundef nonnull %1) #31
  ret ptr %2
}